target datalayout = "e-m:e-p270:32:32-p271:32:32-p272:64:64-i64:64-i128:128-f80:128-n8:16:32:64-S128"
target triple = "x86_64-pc-linux-gnu"

%struct.lean_object = type { i32, i32 }
%struct.lean_ctor_object = type { %struct.lean_object, [0 x ptr] }

; Function Attrs: inlinehint nounwind uwtable
define internal ptr @lean_to_ctor(ptr noundef %0) #0 {
  %2 = alloca ptr, align 8
  store ptr %0, ptr %2, align 8, !tbaa !8
  %3 = load ptr, ptr %2, align 8, !tbaa !8
  ret ptr %3
}

; Function Attrs: inlinehint nounwind uwtable
define internal ptr @lean_ctor_obj_cptr(ptr noundef %0) #0 {
  %2 = alloca ptr, align 8
  store ptr %0, ptr %2, align 8, !tbaa !8
  %3 = load ptr, ptr %2, align 8, !tbaa !8
  %4 = call ptr @lean_to_ctor(ptr noundef %3)
  %5 = getelementptr inbounds nuw %struct.lean_ctor_object, ptr %4, i32 0, i32 1
  %6 = getelementptr inbounds [0 x ptr], ptr %5, i64 0, i64 0
  ret ptr %6
}

; Function Attrs: alwaysinline nounwind uwtable
define internal void @lean_dec_ref(ptr noundef %0) #1 {
  %2 = alloca ptr, align 8
  store ptr %0, ptr %2, align 8, !tbaa !8
  %3 = load ptr, ptr %2, align 8, !tbaa !8
  %4 = getelementptr inbounds nuw %struct.lean_object, ptr %3, i32 0, i32 0
  %5 = load i32, ptr %4, align 4, !tbaa !15
  %6 = icmp sgt i32 %5, 1
  %7 = zext i1 %6 to i32
  %8 = sext i32 %7 to i64
  %9 = call i64 @llvm.expect.i64(i64 %8, i64 1)
  %10 = icmp ne i64 %9, 0
  br i1 %10, label %11, label %16

11:                                               ; preds = %1
  %12 = load ptr, ptr %2, align 8, !tbaa !8
  %13 = getelementptr inbounds nuw %struct.lean_object, ptr %12, i32 0, i32 0
  %14 = load i32, ptr %13, align 4, !tbaa !15
  %15 = add i32 %14, -1
  store i32 %15, ptr %13, align 4, !tbaa !15
  br label %24

16:                                               ; preds = %1
  %17 = load ptr, ptr %2, align 8, !tbaa !8
  %18 = getelementptr inbounds nuw %struct.lean_object, ptr %17, i32 0, i32 0
  %19 = load i32, ptr %18, align 4, !tbaa !15
  %20 = icmp ne i32 %19, 0
  br i1 %20, label %21, label %23

21:                                               ; preds = %16
  %22 = load ptr, ptr %2, align 8, !tbaa !8
  call void @lean_dec_ref_cold(ptr noundef %22)
  br label %23

23:                                               ; preds = %21, %16
  br label %24

24:                                               ; preds = %23, %11
  ret void
}

; Function Attrs: alwaysinline nounwind uwtable
define internal zeroext i1 @lean_is_scalar(ptr noundef %0) #1 {
  %2 = alloca ptr, align 8
  store ptr %0, ptr %2, align 8, !tbaa !8
  %3 = load ptr, ptr %2, align 8, !tbaa !8
  %4 = ptrtoint ptr %3 to i64
  %5 = and i64 %4, 1
  %6 = icmp eq i64 %5, 1
  ret i1 %6
}

; Function Attrs: inlinehint nounwind uwtable
define internal i64 @lean_ctor_get_usize(ptr noundef %0, i32 noundef %1) #0 {
  %3 = alloca ptr, align 8
  %4 = alloca i32, align 4
  store ptr %0, ptr %3, align 8, !tbaa !8
  store i32 %1, ptr %4, align 4, !tbaa !13
  %5 = load ptr, ptr %3, align 8, !tbaa !8
  %6 = call ptr @lean_ctor_obj_cptr(ptr noundef %5)
  %7 = load i32, ptr %4, align 4, !tbaa !13
  %8 = zext i32 %7 to i64
  %9 = getelementptr inbounds nuw ptr, ptr %6, i64 %8
  %10 = load i64, ptr %9, align 8, !tbaa !4
  ret i64 %10
}

; Function Attrs: alwaysinline nounwind uwtable
define internal void @lean_dec(ptr noundef %0) #1 {
  %2 = alloca ptr, align 8
  store ptr %0, ptr %2, align 8, !tbaa !8
  %3 = load ptr, ptr %2, align 8, !tbaa !8
  %4 = call zeroext i1 @lean_is_scalar(ptr noundef %3)
  br i1 %4, label %7, label %5

5:                                                ; preds = %1
  %6 = load ptr, ptr %2, align 8, !tbaa !8
  call void @lean_dec_ref(ptr noundef %6)
  br label %7

7:                                                ; preds = %5, %1
  ret void
}

; Function Attrs: inlinehint nounwind uwtable
define internal i64 @lean_unbox_usize(ptr noundef %0) #0 {
  %2 = alloca ptr, align 8
  store ptr %0, ptr %2, align 8, !tbaa !8
  %3 = load ptr, ptr %2, align 8, !tbaa !8
  %4 = call i64 @lean_ctor_get_usize(ptr noundef %3, i32 noundef 0)
  ret i64 %4
}

; Function Attrs: nounwind uwtable
define ptr @l_Array_anyMUnsafe_any___at_Lean_Compiler_LCNF_Probe_filterByJmp_go___spec__1___boxed(ptr noundef %0, ptr noundef %1, ptr noundef %2, ptr noundef %3, ptr noundef %4, ptr noundef %5, ptr noundef %6, ptr noundef %7, ptr noundef %8) #2 {
  %10 = alloca ptr, align 8
  %11 = alloca ptr, align 8
  %12 = alloca ptr, align 8
  %13 = alloca ptr, align 8
  %14 = alloca ptr, align 8
  %15 = alloca ptr, align 8
  %16 = alloca ptr, align 8
  %17 = alloca ptr, align 8
  %18 = alloca ptr, align 8
  %19 = alloca i64, align 8
  %20 = alloca i64, align 8
  %21 = alloca ptr, align 8
  store ptr %0, ptr %10, align 8, !tbaa !8
  store ptr %1, ptr %11, align 8, !tbaa !8
  store ptr %2, ptr %12, align 8, !tbaa !8
  store ptr %3, ptr %13, align 8, !tbaa !8
  store ptr %4, ptr %14, align 8, !tbaa !8
  store ptr %5, ptr %15, align 8, !tbaa !8
  store ptr %6, ptr %16, align 8, !tbaa !8
  store ptr %7, ptr %17, align 8, !tbaa !8
  store ptr %8, ptr %18, align 8, !tbaa !8
  br label %22

22:                                               ; preds = %9
  call void @llvm.lifetime.start.p0(i64 8, ptr %19) #7
  call void @llvm.lifetime.start.p0(i64 8, ptr %20) #7
  call void @llvm.lifetime.start.p0(i64 8, ptr %21) #7
  %23 = load ptr, ptr %12, align 8, !tbaa !8
  %24 = call i64 @lean_unbox_usize(ptr noundef %23)
  store i64 %24, ptr %19, align 8, !tbaa !4
  %25 = load ptr, ptr %12, align 8, !tbaa !8
  call void @lean_dec(ptr noundef %25)
  %26 = load ptr, ptr %13, align 8, !tbaa !8
  %27 = call i64 @lean_unbox_usize(ptr noundef %26)
  store i64 %27, ptr %20, align 8, !tbaa !4
  %28 = load ptr, ptr %13, align 8, !tbaa !8
  call void @lean_dec(ptr noundef %28)
  %29 = load ptr, ptr %10, align 8, !tbaa !8
  %30 = load ptr, ptr %11, align 8, !tbaa !8
  %31 = load i64, ptr %19, align 8, !tbaa !4
  %32 = load i64, ptr %20, align 8, !tbaa !4
  %33 = load ptr, ptr %14, align 8, !tbaa !8
  %34 = load ptr, ptr %15, align 8, !tbaa !8
  %35 = load ptr, ptr %16, align 8, !tbaa !8
  %36 = load ptr, ptr %17, align 8, !tbaa !8
  %37 = load ptr, ptr %18, align 8, !tbaa !8
  %38 = call ptr @l_Array_anyMUnsafe_any___at_Lean_Compiler_LCNF_Probe_filterByJmp_go___spec__1(ptr noundef %29, ptr noundef %30, i64 noundef %31, i64 noundef %32, ptr noundef %33, ptr noundef %34, ptr noundef %35, ptr noundef %36, ptr noundef %37)
  store ptr %38, ptr %21, align 8, !tbaa !8
  %39 = load ptr, ptr %11, align 8, !tbaa !8
  call void @lean_dec(ptr noundef %39)
  %40 = load ptr, ptr %21, align 8, !tbaa !8
  call void @llvm.lifetime.end.p0(i64 8, ptr %21) #7
  call void @llvm.lifetime.end.p0(i64 8, ptr %20) #7
  call void @llvm.lifetime.end.p0(i64 8, ptr %19) #7
  ret ptr %40
}